; Function Attrs: null_pointer_is_valid sspstrong uwtable
define internal i32 @dissect_lapd_frame(ptr noundef %0, ptr noundef initializes((112, 160), (208, 256)) %1, ptr noundef %2, ptr readnone captures(none) %3) #0 {
  %5 = alloca i32, align 4
  call void @llvm.lifetime.start.p0(i64 4, ptr nonnull %5) #11
  %6 = getelementptr inbounds nuw i8, ptr %1, i64 96
  %7 = load ptr, ptr %6, align 8
  %8 = getelementptr inbounds nuw i8, ptr %7, i64 232
  %9 = load ptr, ptr %8, align 8
  %10 = call i32 @wtap_block_get_uint32_option_value(ptr noundef %9, i32 noundef 2, ptr noundef nonnull %5)
  %11 = icmp eq i32 %10, 0
  br i1 %11, label %12, label %15

12:                                               ; preds = %4
  %13 = load i32, ptr %5, align 4
  %14 = and i32 %13, 3
  %switch.selectcmp = icmp eq i32 %14, 1
  %switch.select = select i1 %switch.selectcmp, i32 2, i32 0
  %switch.selectcmp7 = icmp eq i32 %14, 2
  %switch.select8 = select i1 %switch.selectcmp7, i32 10, i32 %switch.select
  br label %15

15:                                               ; preds = %12, %4
  %.0 = phi i32 [ 0, %4 ], [ %switch.select8, %12 ]
  call fastcc void @dissect_lapd_full(ptr noundef %0, ptr noundef %1, ptr noundef %2, i32 noundef %.0)
  %16 = call i32 @tvb_captured_length(ptr noundef %0)
  call void @llvm.lifetime.end.p0(i64 4, ptr nonnull %5) #11
  ret i32 %16
}